target datalayout = "e-m:e-p270:32:32-p271:32:32-p272:64:64-i64:64-i128:128-f80:128-n8:16:32:64-S128"
target triple = "x86_64-pc-linux-gnu"

; Function Attrs: nounwind uwtable
define dso_local void @decodeTimeoutKey(ptr noundef %0, ptr noundef %1, ptr noundef %2) #0 {
  %4 = alloca ptr, align 8
  %5 = alloca ptr, align 8
  %6 = alloca ptr, align 8
  store ptr %0, ptr %4, align 8, !tbaa !56
  store ptr %1, ptr %5, align 8, !tbaa !57
  store ptr %2, ptr %6, align 8, !tbaa !59
  %7 = load ptr, ptr %5, align 8, !tbaa !57
  %8 = load ptr, ptr %4, align 8, !tbaa !56
  call void @llvm.memcpy.p0.p0.i64(ptr align 8 %7, ptr align 1 %8, i64 8, i1 false)
  %9 = load ptr, ptr %5, align 8, !tbaa !57
  %10 = load i64, ptr %9, align 8, !tbaa !32
  %11 = call i64 @intrev64(i64 noundef %10)
  %12 = load ptr, ptr %5, align 8, !tbaa !57
  store i64 %11, ptr %12, align 8, !tbaa !32
  %13 = load ptr, ptr %6, align 8, !tbaa !59
  %14 = load ptr, ptr %4, align 8, !tbaa !56
  %15 = getelementptr inbounds i8, ptr %14, i64 8
  call void @llvm.memcpy.p0.p0.i64(ptr align 8 %13, ptr align 1 %15, i64 8, i1 false)
  ret void
}