; Function Attrs: nounwind uwtable
define dso_local void @decodeTimeoutKey(ptr noundef readonly captures(none) %0, ptr noundef writeonly captures(none) initializes((0, 8)) %1, ptr noundef writeonly captures(none) initializes((0, 8)) %2) local_unnamed_addr #0 {
  %4 = load i64, ptr %0, align 1
  store i64 %4, ptr %1, align 8
  %5 = tail call i64 @intrev64(i64 noundef %4) #4
  store i64 %5, ptr %1, align 8, !tbaa !52
  %6 = getelementptr inbounds nuw i8, ptr %0, i64 8
  %7 = load i64, ptr %6, align 1
  store i64 %7, ptr %2, align 8
  ret void
}